target datalayout = "e-m:e-p270:32:32-p271:32:32-p272:64:64-i64:64-i128:128-f80:128-n8:16:32:64-S128"
target triple = "x86_64-pc-linux-gnu"

%struct.slurmctld_lock_t = type { i32, i32, i32, i32, i32 }
%struct.job_record = type { i32, ptr, ptr, ptr, ptr, i16, i32, i32, i32, ptr, i32, ptr, ptr, i16, ptr, double, i64, ptr, ptr, ptr, ptr, ptr, ptr, i32, ptr, i32, i64, i64, i32, i32, ptr, i16, i64, i64, i8, i32, ptr, ptr, ptr, ptr, ptr, ptr, ptr, ptr, i32, ptr, ptr, i32, ptr, i32, ptr, i32, ptr, i32, ptr, ptr, ptr, ptr, ptr, ptr, i32, i16, i64, ptr, ptr, ptr, ptr, %struct.acct_policy_limit_set_t, i16, ptr, ptr, ptr, ptr, ptr, i32, ptr, ptr, ptr, ptr, ptr, i32, i32, ptr, ptr, ptr, i16, ptr, ptr, i8, ptr, ptr, i64, i64, i8, i32, i32, i8, i32, ptr, i32, i64, i32, ptr, ptr, ptr, i8, i16, i64, i32, ptr, ptr, ptr, ptr, ptr, i16, i32, ptr, ptr, ptr, ptr, i32, ptr, i32, i16, i64, ptr, i32, i32, ptr, i64, ptr, ptr, i64, i32, i32, i64, i32, i32, ptr, ptr, ptr, ptr, ptr, ptr, ptr, ptr, ptr, ptr, ptr, ptr, i32, ptr, i16, i16, i16, i16, ptr, i32, i32, i8, i64 }
%struct.acct_policy_limit_set_t = type { i16, i16, ptr }
%struct.job_details_t = type { i32, ptr, i64, ptr, i32, ptr, i64, ptr, i16, i16, ptr, i16, i32, i32, i32, i16, ptr, i16, ptr, ptr, ptr, i16, ptr, ptr, ptr, ptr, i32, ptr, ptr, ptr, ptr, ptr, i32, i32, i32, ptr, ptr, i16, i32, i32, i32, i32, i32, i32, i16, i16, i32, i8, i8, i32, i32, i64, i64, i16, i32, ptr, ptr, i8, ptr, i32, ptr, i64, ptr, ptr, i16, i16, i16, i8, ptr, ptr, ptr, ptr, ptr, ptr, i64, i32, i32, i8, ptr, i16, ptr, ptr, i16 }

@job_list = external global ptr, align 8
@__const._restore_job_dependencies.job_fed_lock = private unnamed_addr constant %struct.slurmctld_lock_t { i32 0, i32 2, i32 0, i32 0, i32 1 }, align 4

; Function Attrs: nounwind uwtable
define internal void @_restore_job_dependencies() #0 {
  %1 = alloca ptr, align 8
  %2 = alloca ptr, align 8
  %3 = alloca %struct.slurmctld_lock_t, align 8
  call void @llvm.lifetime.start.p0(i64 8, ptr %1) #11
  call void @llvm.lifetime.start.p0(i64 8, ptr %2) #11
  call void @llvm.lifetime.start.p0(i64 20, ptr %3) #11
  call void @llvm.memcpy.p0.p0.i64(ptr align 4 %3, ptr align 4 @__const._restore_job_dependencies.job_fed_lock, i64 20, i1 false)
  call void @lock_slurmctld(ptr noundef byval(%struct.slurmctld_lock_t) align 8 %3)
  %4 = load ptr, ptr @job_list, align 8
  %5 = call ptr @list_iterator_create(ptr noundef %4)
  store ptr %5, ptr %2, align 8
  br label %6

6:                                                ; preds = %29, %0
  %7 = load ptr, ptr %2, align 8
  %8 = call ptr @list_next(ptr noundef %7)
  store ptr %8, ptr %1, align 8
  %9 = icmp ne ptr %8, null
  br i1 %9, label %10, label %30

10:                                               ; preds = %6
  %11 = load ptr, ptr %1, align 8
  %12 = getelementptr inbounds nuw %struct.job_record, ptr %11, i32 0, i32 30
  %13 = load ptr, ptr %12, align 8
  %14 = icmp ne ptr %13, null
  br i1 %14, label %15, label %29

15:                                               ; preds = %10
  %16 = load ptr, ptr %1, align 8
  %17 = getelementptr inbounds nuw %struct.job_record, ptr %16, i32 0, i32 30
  %18 = load ptr, ptr %17, align 8
  %19 = getelementptr inbounds nuw %struct.job_details_t, ptr %18, i32 0, i32 18
  %20 = load ptr, ptr %19, align 8
  %21 = icmp ne ptr %20, null
  br i1 %21, label %22, label %29

22:                                               ; preds = %15
  %23 = load ptr, ptr %1, align 8
  %24 = getelementptr inbounds nuw %struct.job_record, ptr %23, i32 0, i32 30
  %25 = load ptr, ptr %24, align 8
  %26 = getelementptr inbounds nuw %struct.job_details_t, ptr %25, i32 0, i32 18
  %27 = load ptr, ptr %26, align 8
  %28 = call i32 @list_for_each(ptr noundef %27, ptr noundef @_init_dep_job_ptr, ptr noundef null)
  br label %29

29:                                               ; preds = %22, %15, %10
  br label %6, !llvm.loop !24

30:                                               ; preds = %6
  %31 = load ptr, ptr %2, align 8
  call void @list_iterator_destroy(ptr noundef %31)
  call void @unlock_slurmctld(ptr noundef byval(%struct.slurmctld_lock_t) align 8 %3)
  call void @llvm.lifetime.end.p0(i64 20, ptr %3) #11
  call void @llvm.lifetime.end.p0(i64 8, ptr %2) #11
  call void @llvm.lifetime.end.p0(i64 8, ptr %1) #11
  ret void
}