; Function Attrs: nounwind uwtable
define internal fastcc void @_restore_job_dependencies() unnamed_addr #6 {
  tail call void @lock_slurmctld(ptr noundef nonnull byval(%struct.slurmctld_lock_t) align 8 @__const._restore_job_dependencies.job_fed_lock) #19
  %1 = load ptr, ptr @job_list, align 8
  %2 = tail call ptr @list_iterator_create(ptr noundef %1) #19
  %3 = tail call ptr @list_next(ptr noundef %2) #19
  %.not9 = icmp eq ptr %3, null
  br i1 %.not9, label %._crit_edge, label %.lr.ph

.lr.ph:                                           ; preds = %0, %12
  %4 = phi ptr [ %13, %12 ], [ %3, %0 ]
  %5 = getelementptr inbounds nuw i8, ptr %4, i64 216
  %6 = load ptr, ptr %5, align 8
  %.not7 = icmp eq ptr %6, null
  br i1 %.not7, label %12, label %7

7:                                                ; preds = %.lr.ph
  %8 = getelementptr inbounds nuw i8, ptr %6, i64 120
  %9 = load ptr, ptr %8, align 8
  %.not8 = icmp eq ptr %9, null
  br i1 %.not8, label %12, label %10

10:                                               ; preds = %7
  %11 = tail call i32 @list_for_each(ptr noundef nonnull %9, ptr noundef nonnull @_init_dep_job_ptr, ptr noundef null) #19
  br label %12

12:                                               ; preds = %10, %7, %.lr.ph
  %13 = tail call ptr @list_next(ptr noundef %2) #19
  %.not = icmp eq ptr %13, null
  br i1 %.not, label %._crit_edge, label %.lr.ph, !llvm.loop !24

._crit_edge:                                      ; preds = %12, %0
  tail call void @list_iterator_destroy(ptr noundef %2) #19
  tail call void @unlock_slurmctld(ptr noundef nonnull byval(%struct.slurmctld_lock_t) align 8 @__const._restore_job_dependencies.job_fed_lock) #19
  ret void
}